; Function Attrs: mustprogress uwtable
define noundef i32 @_ZN5dtm_t20run_abstract_commandEjPKjmPjm(ptr nocapture noundef nonnull align 8 dereferenceable(928) %0, i32 noundef %1, ptr nocapture noundef readonly %2, i64 noundef %3, ptr nocapture noundef %4, i64 noundef %5) local_unnamed_addr #0 align 2 {
  %.not48 = icmp eq i64 %3, 0
  br i1 %.not48, label %._crit_edge, label %.lr.ph

.lr.ph:                                           ; preds = %6
  %7 = getelementptr inbounds i8, ptr %0, i64 872
  %.sroa.22.0..sroa_idx.i.i = getelementptr inbounds i8, ptr %0, i64 880
  %8 = getelementptr inbounds i8, ptr %0, i64 728
  br label %9

9:                                                ; preds = %.lr.ph, %9
  %.02541 = phi i64 [ 0, %.lr.ph ], [ %14, %9 ]
  %10 = add i64 %.02541, 32
  %11 = getelementptr inbounds i32, ptr %2, i64 %.02541
  %12 = load i32, ptr %11, align 4
  %.sroa.01.0.insert.ext.i = and i64 %10, 4294967295
  %.sroa.01.0.insert.insert.i = or disjoint i64 %.sroa.01.0.insert.ext.i, 8589934592
  store i64 %.sroa.01.0.insert.insert.i, ptr %7, align 8
  store i32 %12, ptr %.sroa.22.0..sroa_idx.i.i, align 8
  %13 = load ptr, ptr %8, align 8
  tail call void @_ZN9context_t9switch_toEv(ptr noundef nonnull align 8 dereferenceable(32) %13)
  %14 = add nuw i64 %.02541, 1
  %exitcond.not = icmp eq i64 %14, %3
  br i1 %exitcond.not, label %._crit_edge, label %9, !llvm.loop !9

._crit_edge:                                      ; preds = %9, %6
  %15 = lshr i32 %1, 16
  %16 = and i32 %15, 1
  %.not = icmp eq i32 %16, 0
  %17 = and i32 %1, 131072
  %.not27 = icmp eq i32 %17, 0
  %18 = icmp eq i64 %5, 0
  %19 = or i1 %.not, %18
  %or.cond46.not = or i1 %19, %.not27
  br i1 %or.cond46.not, label %.loopexit40, label %.lr.ph43

.lr.ph43:                                         ; preds = %._crit_edge
  %20 = getelementptr inbounds i8, ptr %0, i64 872
  %.sroa.22.0..sroa_idx.i.i33 = getelementptr inbounds i8, ptr %0, i64 880
  %21 = getelementptr inbounds i8, ptr %0, i64 728
  br label %22

22:                                               ; preds = %.lr.ph43, %22
  %.02642 = phi i64 [ 0, %.lr.ph43 ], [ %27, %22 ]
  %23 = add i64 %.02642, 4
  %24 = getelementptr inbounds i32, ptr %4, i64 %.02642
  %25 = load i32, ptr %24, align 4
  %.sroa.01.0.insert.ext.i31 = and i64 %23, 4294967295
  %.sroa.01.0.insert.insert.i32 = or disjoint i64 %.sroa.01.0.insert.ext.i31, 8589934592
  store i64 %.sroa.01.0.insert.insert.i32, ptr %20, align 8
  store i32 %25, ptr %.sroa.22.0..sroa_idx.i.i33, align 8
  %26 = load ptr, ptr %21, align 8
  tail call void @_ZN9context_t9switch_toEv(ptr noundef nonnull align 8 dereferenceable(32) %26)
  %27 = add nuw i64 %.02642, 1
  %exitcond51.not = icmp eq i64 %27, %5
  br i1 %exitcond51.not, label %.loopexit40, label %22, !llvm.loop !10

.loopexit40:                                      ; preds = %22, %._crit_edge
  %28 = getelementptr inbounds i8, ptr %0, i64 872
  store i64 8589934615, ptr %28, align 8
  %.sroa.22.0..sroa_idx.i.i34 = getelementptr inbounds i8, ptr %0, i64 880
  store i32 %1, ptr %.sroa.22.0..sroa_idx.i.i34, align 8
  %29 = getelementptr inbounds i8, ptr %0, i64 728
  %30 = load ptr, ptr %29, align 8
  tail call void @_ZN9context_t9switch_toEv(ptr noundef nonnull align 8 dereferenceable(32) %30)
  %31 = getelementptr inbounds i8, ptr %0, i64 888
  br label %32

32:                                               ; preds = %32, %.loopexit40
  store i64 4294967318, ptr %28, align 8
  store i32 0, ptr %.sroa.22.0..sroa_idx.i.i34, align 8
  %33 = load ptr, ptr %29, align 8
  tail call void @_ZN9context_t9switch_toEv(ptr noundef nonnull align 8 dereferenceable(32) %33)
  %34 = load i32, ptr %31, align 8
  %35 = and i32 %34, 4096
  %.not28 = icmp eq i32 %35, 0
  br i1 %.not28, label %36, label %32, !llvm.loop !11

36:                                               ; preds = %32
  %37 = icmp ne i32 %16, 0
  %38 = or i1 %37, %18
  %or.cond47.not = or i1 %38, %.not27
  br i1 %or.cond47.not, label %.loopexit, label %.lr.ph45

.lr.ph45:                                         ; preds = %36, %.lr.ph45
  %.044 = phi i64 [ %43, %.lr.ph45 ], [ 0, %36 ]
  %39 = add i64 %.044, 4
  %.sroa.01.0.insert.ext.i36 = and i64 %39, 4294967295
  %.sroa.01.0.insert.insert.i37 = or disjoint i64 %.sroa.01.0.insert.ext.i36, 4294967296
  store i64 %.sroa.01.0.insert.insert.i37, ptr %28, align 8
  store i32 0, ptr %.sroa.22.0..sroa_idx.i.i34, align 8
  %40 = load ptr, ptr %29, align 8
  tail call void @_ZN9context_t9switch_toEv(ptr noundef nonnull align 8 dereferenceable(32) %40)
  %41 = load i32, ptr %31, align 8
  %42 = getelementptr inbounds i32, ptr %4, i64 %.044
  store i32 %41, ptr %42, align 4
  %43 = add nuw i64 %.044, 1
  %exitcond52.not = icmp eq i64 %43, %5
  br i1 %exitcond52.not, label %.loopexit, label %.lr.ph45, !llvm.loop !12

.loopexit:                                        ; preds = %.lr.ph45, %36
  %44 = lshr i32 %34, 8
  %45 = and i32 %44, 7
  ret i32 %45
}